target datalayout = "e-m:e-p270:32:32-p271:32:32-p272:64:64-i64:64-i128:128-f80:128-n8:16:32:64-S128"
target triple = "x86_64-pc-linux-gnu"

%struct.dtoa_context = type { [8 x ptr], ptr }
%struct.Bigint = type { ptr, i32, i32, i32, i32, [1 x i32] }

; Function Attrs: nounwind uwtable
define internal void @Bfree(ptr noundef %0, ptr noundef %1) #0 {
  %3 = alloca ptr, align 8
  %4 = alloca ptr, align 8
  store ptr %0, ptr %3, align 8, !tbaa !4
  store ptr %1, ptr %4, align 8, !tbaa !11
  %5 = load ptr, ptr %4, align 8, !tbaa !11
  %6 = icmp ne ptr %5, null
  br i1 %6, label %7, label %34

7:                                                ; preds = %2
  %8 = load ptr, ptr %4, align 8, !tbaa !11
  %9 = getelementptr inbounds nuw %struct.Bigint, ptr %8, i32 0, i32 1
  %10 = load i32, ptr %9, align 8, !tbaa !22
  %11 = icmp sgt i32 %10, 7
  br i1 %11, label %12, label %14

12:                                               ; preds = %7
  %13 = load ptr, ptr %4, align 8, !tbaa !11
  call void @jv_mem_free(ptr noundef %13)
  br label %33

14:                                               ; preds = %7
  %15 = load ptr, ptr %3, align 8, !tbaa !4
  %16 = getelementptr inbounds nuw %struct.dtoa_context, ptr %15, i32 0, i32 0
  %17 = load ptr, ptr %4, align 8, !tbaa !11
  %18 = getelementptr inbounds nuw %struct.Bigint, ptr %17, i32 0, i32 1
  %19 = load i32, ptr %18, align 8, !tbaa !22
  %20 = sext i32 %19 to i64
  %21 = getelementptr inbounds [8 x ptr], ptr %16, i64 0, i64 %20
  %22 = load ptr, ptr %21, align 8, !tbaa !11
  %23 = load ptr, ptr %4, align 8, !tbaa !11
  %24 = getelementptr inbounds nuw %struct.Bigint, ptr %23, i32 0, i32 0
  store ptr %22, ptr %24, align 8, !tbaa !17
  %25 = load ptr, ptr %4, align 8, !tbaa !11
  %26 = load ptr, ptr %3, align 8, !tbaa !4
  %27 = getelementptr inbounds nuw %struct.dtoa_context, ptr %26, i32 0, i32 0
  %28 = load ptr, ptr %4, align 8, !tbaa !11
  %29 = getelementptr inbounds nuw %struct.Bigint, ptr %28, i32 0, i32 1
  %30 = load i32, ptr %29, align 8, !tbaa !22
  %31 = sext i32 %30 to i64
  %32 = getelementptr inbounds [8 x ptr], ptr %27, i64 0, i64 %31
  store ptr %25, ptr %32, align 8, !tbaa !11
  br label %33

33:                                               ; preds = %14, %12
  br label %34

34:                                               ; preds = %33, %2
  ret void
}

; Function Attrs: nounwind uwtable
define internal ptr @Balloc(ptr noundef %0, i32 noundef %1) #0 {
  %3 = alloca ptr, align 8
  %4 = alloca i32, align 4
  %5 = alloca i32, align 4
  %6 = alloca ptr, align 8
  store ptr %0, ptr %3, align 8, !tbaa !4
  store i32 %1, ptr %4, align 4, !tbaa !9
  call void @llvm.lifetime.start.p0(i64 4, ptr %5) #6
  call void @llvm.lifetime.start.p0(i64 8, ptr %6) #6
  %7 = load i32, ptr %4, align 4, !tbaa !9
  %8 = icmp sle i32 %7, 7
  br i1 %8, label %9, label %26

9:                                                ; preds = %2
  %10 = load ptr, ptr %3, align 8, !tbaa !4
  %11 = getelementptr inbounds nuw %struct.dtoa_context, ptr %10, i32 0, i32 0
  %12 = load i32, ptr %4, align 4, !tbaa !9
  %13 = sext i32 %12 to i64
  %14 = getelementptr inbounds [8 x ptr], ptr %11, i64 0, i64 %13
  %15 = load ptr, ptr %14, align 8, !tbaa !11
  store ptr %15, ptr %6, align 8, !tbaa !11
  %16 = icmp ne ptr %15, null
  br i1 %16, label %17, label %26

17:                                               ; preds = %9
  %18 = load ptr, ptr %6, align 8, !tbaa !11
  %19 = getelementptr inbounds nuw %struct.Bigint, ptr %18, i32 0, i32 0
  %20 = load ptr, ptr %19, align 8, !tbaa !17
  %21 = load ptr, ptr %3, align 8, !tbaa !4
  %22 = getelementptr inbounds nuw %struct.dtoa_context, ptr %21, i32 0, i32 0
  %23 = load i32, ptr %4, align 4, !tbaa !9
  %24 = sext i32 %23 to i64
  %25 = getelementptr inbounds [8 x ptr], ptr %22, i64 0, i64 %24
  store ptr %20, ptr %25, align 8, !tbaa !11
  br label %41

26:                                               ; preds = %9, %2
  %27 = load i32, ptr %4, align 4, !tbaa !9
  %28 = shl i32 1, %27
  store i32 %28, ptr %5, align 4, !tbaa !9
  %29 = load i32, ptr %5, align 4, !tbaa !9
  %30 = sub nsw i32 %29, 1
  %31 = sext i32 %30 to i64
  %32 = mul i64 %31, 4
  %33 = add i64 32, %32
  %34 = call ptr @jv_mem_alloc(i64 noundef %33)
  store ptr %34, ptr %6, align 8, !tbaa !11
  %35 = load i32, ptr %4, align 4, !tbaa !9
  %36 = load ptr, ptr %6, align 8, !tbaa !11
  %37 = getelementptr inbounds nuw %struct.Bigint, ptr %36, i32 0, i32 1
  store i32 %35, ptr %37, align 8, !tbaa !22
  %38 = load i32, ptr %5, align 4, !tbaa !9
  %39 = load ptr, ptr %6, align 8, !tbaa !11
  %40 = getelementptr inbounds nuw %struct.Bigint, ptr %39, i32 0, i32 2
  store i32 %38, ptr %40, align 4, !tbaa !58
  br label %41

41:                                               ; preds = %26, %17
  %42 = load ptr, ptr %6, align 8, !tbaa !11
  %43 = getelementptr inbounds nuw %struct.Bigint, ptr %42, i32 0, i32 4
  store i32 0, ptr %43, align 4, !tbaa !51
  %44 = load ptr, ptr %6, align 8, !tbaa !11
  %45 = getelementptr inbounds nuw %struct.Bigint, ptr %44, i32 0, i32 3
  store i32 0, ptr %45, align 8, !tbaa !52
  %46 = load ptr, ptr %6, align 8, !tbaa !11
  call void @llvm.lifetime.end.p0(i64 8, ptr %6) #6
  call void @llvm.lifetime.end.p0(i64 4, ptr %5) #6
  ret ptr %46
}

; Function Attrs: nounwind uwtable
define internal ptr @lshift(ptr noundef %0, ptr noundef %1, i32 noundef %2) #0 {
  %4 = alloca ptr, align 8
  %5 = alloca ptr, align 8
  %6 = alloca i32, align 4
  %7 = alloca i32, align 4
  %8 = alloca i32, align 4
  %9 = alloca i32, align 4
  %10 = alloca i32, align 4
  %11 = alloca ptr, align 8
  %12 = alloca ptr, align 8
  %13 = alloca ptr, align 8
  %14 = alloca ptr, align 8
  %15 = alloca i32, align 4
  store ptr %0, ptr %4, align 8, !tbaa !4
  store ptr %1, ptr %5, align 8, !tbaa !11
  store i32 %2, ptr %6, align 4, !tbaa !9
  call void @llvm.lifetime.start.p0(i64 4, ptr %7) #6
  call void @llvm.lifetime.start.p0(i64 4, ptr %8) #6
  call void @llvm.lifetime.start.p0(i64 4, ptr %9) #6
  call void @llvm.lifetime.start.p0(i64 4, ptr %10) #6
  call void @llvm.lifetime.start.p0(i64 8, ptr %11) #6
  call void @llvm.lifetime.start.p0(i64 8, ptr %12) #6
  call void @llvm.lifetime.start.p0(i64 8, ptr %13) #6
  call void @llvm.lifetime.start.p0(i64 8, ptr %14) #6
  call void @llvm.lifetime.start.p0(i64 4, ptr %15) #6
  %16 = load i32, ptr %6, align 4, !tbaa !9
  %17 = ashr i32 %16, 5
  store i32 %17, ptr %9, align 4, !tbaa !9
  %18 = load ptr, ptr %5, align 8, !tbaa !11
  %19 = getelementptr inbounds nuw %struct.Bigint, ptr %18, i32 0, i32 1
  %20 = load i32, ptr %19, align 8, !tbaa !22
  store i32 %20, ptr %8, align 4, !tbaa !9
  %21 = load i32, ptr %9, align 4, !tbaa !9
  %22 = load ptr, ptr %5, align 8, !tbaa !11
  %23 = getelementptr inbounds nuw %struct.Bigint, ptr %22, i32 0, i32 4
  %24 = load i32, ptr %23, align 4, !tbaa !51
  %25 = add nsw i32 %21, %24
  %26 = add nsw i32 %25, 1
  store i32 %26, ptr %10, align 4, !tbaa !9
  %27 = load ptr, ptr %5, align 8, !tbaa !11
  %28 = getelementptr inbounds nuw %struct.Bigint, ptr %27, i32 0, i32 2
  %29 = load i32, ptr %28, align 4, !tbaa !58
  store i32 %29, ptr %7, align 4, !tbaa !9
  br label %30

30:                                               ; preds = %37, %3
  %31 = load i32, ptr %10, align 4, !tbaa !9
  %32 = load i32, ptr %7, align 4, !tbaa !9
  %33 = icmp sgt i32 %31, %32
  br i1 %33, label %34, label %40

34:                                               ; preds = %30
  %35 = load i32, ptr %8, align 4, !tbaa !9
  %36 = add nsw i32 %35, 1
  store i32 %36, ptr %8, align 4, !tbaa !9
  br label %37

37:                                               ; preds = %34
  %38 = load i32, ptr %7, align 4, !tbaa !9
  %39 = shl i32 %38, 1
  store i32 %39, ptr %7, align 4, !tbaa !9
  br label %30, !llvm.loop !68

40:                                               ; preds = %30
  %41 = load ptr, ptr %4, align 8, !tbaa !4
  %42 = load i32, ptr %8, align 4, !tbaa !9
  %43 = call ptr @Balloc(ptr noundef %41, i32 noundef %42)
  store ptr %43, ptr %11, align 8, !tbaa !11
  %44 = load ptr, ptr %11, align 8, !tbaa !11
  %45 = getelementptr inbounds nuw %struct.Bigint, ptr %44, i32 0, i32 5
  %46 = getelementptr inbounds [1 x i32], ptr %45, i64 0, i64 0
  store ptr %46, ptr %13, align 8, !tbaa !60
  store i32 0, ptr %7, align 4, !tbaa !9
  br label %47

47:                                               ; preds = %54, %40
  %48 = load i32, ptr %7, align 4, !tbaa !9
  %49 = load i32, ptr %9, align 4, !tbaa !9
  %50 = icmp slt i32 %48, %49
  br i1 %50, label %51, label %57

51:                                               ; preds = %47
  %52 = load ptr, ptr %13, align 8, !tbaa !60
  %53 = getelementptr inbounds nuw i32, ptr %52, i32 1
  store ptr %53, ptr %13, align 8, !tbaa !60
  store i32 0, ptr %52, align 4, !tbaa !9
  br label %54

54:                                               ; preds = %51
  %55 = load i32, ptr %7, align 4, !tbaa !9
  %56 = add nsw i32 %55, 1
  store i32 %56, ptr %7, align 4, !tbaa !9
  br label %47, !llvm.loop !69

57:                                               ; preds = %47
  %58 = load ptr, ptr %5, align 8, !tbaa !11
  %59 = getelementptr inbounds nuw %struct.Bigint, ptr %58, i32 0, i32 5
  %60 = getelementptr inbounds [1 x i32], ptr %59, i64 0, i64 0
  store ptr %60, ptr %12, align 8, !tbaa !60
  %61 = load ptr, ptr %12, align 8, !tbaa !60
  %62 = load ptr, ptr %5, align 8, !tbaa !11
  %63 = getelementptr inbounds nuw %struct.Bigint, ptr %62, i32 0, i32 4
  %64 = load i32, ptr %63, align 4, !tbaa !51
  %65 = sext i32 %64 to i64
  %66 = getelementptr inbounds i32, ptr %61, i64 %65
  store ptr %66, ptr %14, align 8, !tbaa !60
  %67 = load i32, ptr %6, align 4, !tbaa !9
  %68 = and i32 %67, 31
  store i32 %68, ptr %6, align 4, !tbaa !9
  %69 = icmp ne i32 %68, 0
  br i1 %69, label %70, label %99

70:                                               ; preds = %57
  %71 = load i32, ptr %6, align 4, !tbaa !9
  %72 = sub nsw i32 32, %71
  store i32 %72, ptr %8, align 4, !tbaa !9
  store i32 0, ptr %15, align 4, !tbaa !9
  br label %73

73:                                               ; preds = %87, %70
  %74 = load ptr, ptr %12, align 8, !tbaa !60
  %75 = load i32, ptr %74, align 4, !tbaa !9
  %76 = load i32, ptr %6, align 4, !tbaa !9
  %77 = shl i32 %75, %76
  %78 = load i32, ptr %15, align 4, !tbaa !9
  %79 = or i32 %77, %78
  %80 = load ptr, ptr %13, align 8, !tbaa !60
  %81 = getelementptr inbounds nuw i32, ptr %80, i32 1
  store ptr %81, ptr %13, align 8, !tbaa !60
  store i32 %79, ptr %80, align 4, !tbaa !9
  %82 = load ptr, ptr %12, align 8, !tbaa !60
  %83 = getelementptr inbounds nuw i32, ptr %82, i32 1
  store ptr %83, ptr %12, align 8, !tbaa !60
  %84 = load i32, ptr %82, align 4, !tbaa !9
  %85 = load i32, ptr %8, align 4, !tbaa !9
  %86 = lshr i32 %84, %85
  store i32 %86, ptr %15, align 4, !tbaa !9
  br label %87

87:                                               ; preds = %73
  %88 = load ptr, ptr %12, align 8, !tbaa !60
  %89 = load ptr, ptr %14, align 8, !tbaa !60
  %90 = icmp ult ptr %88, %89
  br i1 %90, label %73, label %91, !llvm.loop !70

91:                                               ; preds = %87
  %92 = load i32, ptr %15, align 4, !tbaa !9
  %93 = load ptr, ptr %13, align 8, !tbaa !60
  store i32 %92, ptr %93, align 4, !tbaa !9
  %94 = icmp ne i32 %92, 0
  br i1 %94, label %95, label %98

95:                                               ; preds = %91
  %96 = load i32, ptr %10, align 4, !tbaa !9
  %97 = add nsw i32 %96, 1
  store i32 %97, ptr %10, align 4, !tbaa !9
  br label %98

98:                                               ; preds = %95, %91
  br label %111

99:                                               ; preds = %57
  br label %100

100:                                              ; preds = %106, %99
  %101 = load ptr, ptr %12, align 8, !tbaa !60
  %102 = getelementptr inbounds nuw i32, ptr %101, i32 1
  store ptr %102, ptr %12, align 8, !tbaa !60
  %103 = load i32, ptr %101, align 4, !tbaa !9
  %104 = load ptr, ptr %13, align 8, !tbaa !60
  %105 = getelementptr inbounds nuw i32, ptr %104, i32 1
  store ptr %105, ptr %13, align 8, !tbaa !60
  store i32 %103, ptr %104, align 4, !tbaa !9
  br label %106

106:                                              ; preds = %100
  %107 = load ptr, ptr %12, align 8, !tbaa !60
  %108 = load ptr, ptr %14, align 8, !tbaa !60
  %109 = icmp ult ptr %107, %108
  br i1 %109, label %100, label %110, !llvm.loop !71

110:                                              ; preds = %106
  br label %111

111:                                              ; preds = %110, %98
  %112 = load i32, ptr %10, align 4, !tbaa !9
  %113 = sub nsw i32 %112, 1
  %114 = load ptr, ptr %11, align 8, !tbaa !11
  %115 = getelementptr inbounds nuw %struct.Bigint, ptr %114, i32 0, i32 4
  store i32 %113, ptr %115, align 4, !tbaa !51
  %116 = load ptr, ptr %4, align 8, !tbaa !4
  %117 = load ptr, ptr %5, align 8, !tbaa !11
  call void @Bfree(ptr noundef %116, ptr noundef %117)
  %118 = load ptr, ptr %11, align 8, !tbaa !11
  call void @llvm.lifetime.end.p0(i64 4, ptr %15) #6
  call void @llvm.lifetime.end.p0(i64 8, ptr %14) #6
  call void @llvm.lifetime.end.p0(i64 8, ptr %13) #6
  call void @llvm.lifetime.end.p0(i64 8, ptr %12) #6
  call void @llvm.lifetime.end.p0(i64 8, ptr %11) #6
  call void @llvm.lifetime.end.p0(i64 4, ptr %10) #6
  call void @llvm.lifetime.end.p0(i64 4, ptr %9) #6
  call void @llvm.lifetime.end.p0(i64 4, ptr %8) #6
  call void @llvm.lifetime.end.p0(i64 4, ptr %7) #6
  ret ptr %118
}