; Function Attrs: nounwind uwtable
define internal fastcc ptr @lshift(ptr noundef captures(none) %0, ptr noundef %1, i32 noundef range(i32 -2147483593, -2147483648) %2) unnamed_addr #2 {
  %4 = ashr i32 %2, 5
  %5 = getelementptr inbounds nuw i8, ptr %1, i64 8
  %6 = load i32, ptr %5, align 8, !tbaa !13
  %7 = getelementptr inbounds nuw i8, ptr %1, i64 20
  %8 = load i32, ptr %7, align 4, !tbaa !38
  %9 = add nsw i32 %8, %4
  %10 = getelementptr inbounds nuw i8, ptr %1, i64 12
  %11 = load i32, ptr %10, align 4, !tbaa !35
  %.not53 = icmp slt i32 %9, %11
  br i1 %.not53, label %._crit_edge, label %.lr.ph

.lr.ph:                                           ; preds = %3, %.lr.ph
  %.04355 = phi i32 [ %13, %.lr.ph ], [ %11, %3 ]
  %.04654 = phi i32 [ %12, %.lr.ph ], [ %6, %3 ]
  %12 = add nsw i32 %.04654, 1
  %13 = shl i32 %.04355, 1
  %.not = icmp slt i32 %9, %13
  br i1 %.not, label %._crit_edge, label %.lr.ph, !llvm.loop !48

._crit_edge:                                      ; preds = %.lr.ph, %3
  %.046.lcssa = phi i32 [ %6, %3 ], [ %12, %.lr.ph ]
  %14 = icmp slt i32 %.046.lcssa, 8
  br i1 %14, label %15, label %21

15:                                               ; preds = %._crit_edge
  %16 = sext i32 %.046.lcssa to i64
  %17 = getelementptr inbounds [8 x ptr], ptr %0, i64 0, i64 %16
  %18 = load ptr, ptr %17, align 8, !tbaa !14
  %.not.i = icmp eq ptr %18, null
  br i1 %.not.i, label %21, label %19

19:                                               ; preds = %15
  %20 = load ptr, ptr %18, align 8, !tbaa !10
  store ptr %20, ptr %17, align 8, !tbaa !14
  br label %Balloc.exit

21:                                               ; preds = %15, %._crit_edge
  %22 = shl nuw i32 1, %.046.lcssa
  %23 = add nsw i32 %22, -1
  %24 = zext nneg i32 %23 to i64
  %25 = shl nuw nsw i64 %24, 2
  %26 = add nuw nsw i64 %25, 32
  %27 = tail call ptr @jv_mem_alloc(i64 noundef %26) #11
  %28 = getelementptr inbounds nuw i8, ptr %27, i64 8
  store i32 %.046.lcssa, ptr %28, align 8, !tbaa !13
  %29 = getelementptr inbounds nuw i8, ptr %27, i64 12
  store i32 %22, ptr %29, align 4, !tbaa !35
  br label %Balloc.exit

Balloc.exit:                                      ; preds = %19, %21
  %.0.i = phi ptr [ %18, %19 ], [ %27, %21 ]
  %30 = getelementptr inbounds nuw i8, ptr %.0.i, i64 20
  store i32 0, ptr %30, align 4, !tbaa !38
  %31 = getelementptr inbounds nuw i8, ptr %.0.i, i64 16
  store i32 0, ptr %31, align 8, !tbaa !36
  %32 = getelementptr i8, ptr %.0.i, i64 24
  %33 = icmp sgt i32 %4, 0
  br i1 %33, label %.lr.ph58.preheader, label %._crit_edge59

.lr.ph58.preheader:                               ; preds = %Balloc.exit
  %34 = zext nneg i32 %4 to i64
  %35 = shl nuw nsw i64 %34, 2
  tail call void @llvm.memset.p0.i64(ptr align 4 %32, i8 0, i64 %35, i1 false), !tbaa !37
  %36 = add nsw i32 %4, -1
  %37 = zext nneg i32 %36 to i64
  %38 = shl nuw nsw i64 %37, 2
  %39 = getelementptr i8, ptr %.0.i, i64 %38
  %scevgep = getelementptr i8, ptr %39, i64 28
  br label %._crit_edge59

._crit_edge59:                                    ; preds = %.lr.ph58.preheader, %Balloc.exit
  %.040.lcssa = phi ptr [ %32, %Balloc.exit ], [ %scevgep, %.lr.ph58.preheader ]
  %40 = getelementptr inbounds nuw i8, ptr %1, i64 24
  %41 = load i32, ptr %7, align 4, !tbaa !38
  %42 = sext i32 %41 to i64
  %43 = getelementptr inbounds i32, ptr %40, i64 %42
  %44 = and i32 %2, 31
  %.not49 = icmp eq i32 %44, 0
  br i1 %.not49, label %.preheader, label %45

45:                                               ; preds = %._crit_edge59
  %46 = sub nuw nsw i32 32, %44
  br label %47

47:                                               ; preds = %47, %45
  %.041 = phi ptr [ %40, %45 ], [ %52, %47 ]
  %.1 = phi ptr [ %.040.lcssa, %45 ], [ %51, %47 ]
  %.0 = phi i32 [ 0, %45 ], [ %54, %47 ]
  %48 = load i32, ptr %.041, align 4, !tbaa !37
  %49 = shl i32 %48, %44
  %50 = or i32 %49, %.0
  %51 = getelementptr inbounds nuw i8, ptr %.1, i64 4
  store i32 %50, ptr %.1, align 4, !tbaa !37
  %52 = getelementptr inbounds nuw i8, ptr %.041, i64 4
  %53 = load i32, ptr %.041, align 4, !tbaa !37
  %54 = lshr i32 %53, %46
  %55 = icmp ult ptr %52, %43
  br i1 %55, label %47, label %56, !llvm.loop !49

56:                                               ; preds = %47
  store i32 %54, ptr %51, align 4, !tbaa !37
  %.not50 = icmp ne i32 %54, 0
  %57 = zext i1 %.not50 to i32
  %spec.select = add nsw i32 %9, %57
  br label %.loopexit

.preheader:                                       ; preds = %._crit_edge59, %.preheader
  %.142 = phi ptr [ %58, %.preheader ], [ %40, %._crit_edge59 ]
  %.2 = phi ptr [ %60, %.preheader ], [ %.040.lcssa, %._crit_edge59 ]
  %58 = getelementptr inbounds nuw i8, ptr %.142, i64 4
  %59 = load i32, ptr %.142, align 4, !tbaa !37
  %60 = getelementptr inbounds nuw i8, ptr %.2, i64 4
  store i32 %59, ptr %.2, align 4, !tbaa !37
  %61 = icmp ult ptr %58, %43
  br i1 %61, label %.preheader, label %.loopexit, !llvm.loop !50

.loopexit:                                        ; preds = %.preheader, %56
  %.045 = phi i32 [ %spec.select, %56 ], [ %9, %.preheader ]
  store i32 %.045, ptr %30, align 4, !tbaa !38
  %.not.i51 = icmp eq ptr %1, null
  br i1 %.not.i51, label %Bfree.exit, label %62

62:                                               ; preds = %.loopexit
  %63 = load i32, ptr %5, align 8, !tbaa !13
  %64 = icmp sgt i32 %63, 7
  br i1 %64, label %65, label %66

65:                                               ; preds = %62
  tail call void @jv_mem_free(ptr noundef nonnull %1) #11
  br label %Bfree.exit

66:                                               ; preds = %62
  %67 = sext i32 %63 to i64
  %68 = getelementptr inbounds [8 x ptr], ptr %0, i64 0, i64 %67
  %69 = load ptr, ptr %68, align 8, !tbaa !14
  store ptr %69, ptr %1, align 8, !tbaa !10
  store ptr %1, ptr %68, align 8, !tbaa !14
  br label %Bfree.exit

Bfree.exit:                                       ; preds = %.loopexit, %65, %66
  ret ptr %.0.i
}